target datalayout = "e-m:e-p270:32:32-p271:32:32-p272:64:64-i64:64-i128:128-f80:128-n8:16:32:64-S128"
target triple = "x86_64-pc-linux-gnu"

%struct.strbuf = type { i64, i64, ptr }
%struct.http_get_options = type { i8, ptr, ptr, ptr, ptr, ptr }
%struct.ref = type { ptr, %struct.object_id, %struct.object_id, %struct.object_id, ptr, ptr, i8, i32, i32, i32, ptr, ptr, ptr, [0 x i8] }
%struct.object_id = type { [32 x i8], i32 }
%struct.repository = type { ptr, ptr, ptr, ptr, ptr, %struct.strmap, %struct.strmap, %struct.repo_path_cache, ptr, ptr, ptr, ptr, %struct.repo_settings, ptr, ptr, ptr, ptr, ptr, ptr, i32, i32, i32, ptr, ptr, i32, i32, i8 }
%struct.strmap = type { %struct.hashmap, ptr, i8 }
%struct.hashmap = type { ptr, ptr, ptr, i32, i32, i32, i32, i8 }
%struct.repo_path_cache = type { ptr, ptr, ptr, ptr, ptr, ptr, ptr }
%struct.repo_settings = type { i32, i32, i32, i32, i32, i32, i32, i32, i32, i32, i32, i32, ptr, i32, i32, i32, i32, i32, i32, i32, i64, i64, i64 }
%struct.git_hash_algo = type { ptr, i32, i64, i64, i64, ptr, ptr, ptr, ptr, ptr, ptr, ptr, ptr, ptr }

@__const.http_fetch_ref.buffer = private unnamed_addr constant %struct.strbuf { i64 0, i64 0, ptr @strbuf_slopbuf }, align 8
@the_repository = external global ptr, align 8
@.str.42 = private unnamed_addr constant [6 x i8] c"ref: \00", align 1
@__const.quote_ref_url.buf = private unnamed_addr constant %struct.strbuf { i64 0, i64 0, ptr @strbuf_slopbuf }, align 8
@.str.202 = private unnamed_addr constant [7 x i8] c"%%%02x\00", align 1

; Function Attrs: inlinehint nounwind uwtable
define internal i64 @strbuf_avail(ptr noundef %0) #5 {
  %2 = alloca ptr, align 8
  store ptr %0, ptr %2, align 8, !tbaa !21
  %3 = load ptr, ptr %2, align 8, !tbaa !21
  %4 = getelementptr inbounds nuw %struct.strbuf, ptr %3, i32 0, i32 0
  %5 = load i64, ptr %4, align 8, !tbaa !249
  %6 = icmp ne i64 %5, 0
  br i1 %6, label %7, label %16

7:                                                ; preds = %1
  %8 = load ptr, ptr %2, align 8, !tbaa !21
  %9 = getelementptr inbounds nuw %struct.strbuf, ptr %8, i32 0, i32 0
  %10 = load i64, ptr %9, align 8, !tbaa !249
  %11 = load ptr, ptr %2, align 8, !tbaa !21
  %12 = getelementptr inbounds nuw %struct.strbuf, ptr %11, i32 0, i32 1
  %13 = load i64, ptr %12, align 8, !tbaa !142
  %14 = sub i64 %10, %13
  %15 = sub i64 %14, 1
  br label %17

16:                                               ; preds = %1
  br label %17

17:                                               ; preds = %16, %7
  %18 = phi i64 [ %15, %7 ], [ 0, %16 ]
  ret i64 %18
}

; Function Attrs: inlinehint nounwind uwtable
define internal void @strbuf_addch(ptr noundef %0, i32 noundef %1) #5 {
  %3 = alloca ptr, align 8
  %4 = alloca i32, align 4
  store ptr %0, ptr %3, align 8, !tbaa !21
  store i32 %1, ptr %4, align 4, !tbaa !19
  %5 = load ptr, ptr %3, align 8, !tbaa !21
  %6 = call i64 @strbuf_avail(ptr noundef %5)
  %7 = icmp ne i64 %6, 0
  br i1 %7, label %10, label %8

8:                                                ; preds = %2
  %9 = load ptr, ptr %3, align 8, !tbaa !21
  call void @strbuf_grow(ptr noundef %9, i64 noundef 1)
  br label %10

10:                                               ; preds = %8, %2
  %11 = load i32, ptr %4, align 4, !tbaa !19
  %12 = trunc i32 %11 to i8
  %13 = load ptr, ptr %3, align 8, !tbaa !21
  %14 = getelementptr inbounds nuw %struct.strbuf, ptr %13, i32 0, i32 2
  %15 = load ptr, ptr %14, align 8, !tbaa !35
  %16 = load ptr, ptr %3, align 8, !tbaa !21
  %17 = getelementptr inbounds nuw %struct.strbuf, ptr %16, i32 0, i32 1
  %18 = load i64, ptr %17, align 8, !tbaa !142
  %19 = add i64 %18, 1
  store i64 %19, ptr %17, align 8, !tbaa !142
  %20 = getelementptr inbounds nuw i8, ptr %15, i64 %18
  store i8 %12, ptr %20, align 1, !tbaa !65
  %21 = load ptr, ptr %3, align 8, !tbaa !21
  %22 = getelementptr inbounds nuw %struct.strbuf, ptr %21, i32 0, i32 2
  %23 = load ptr, ptr %22, align 8, !tbaa !35
  %24 = load ptr, ptr %3, align 8, !tbaa !21
  %25 = getelementptr inbounds nuw %struct.strbuf, ptr %24, i32 0, i32 1
  %26 = load i64, ptr %25, align 8, !tbaa !142
  %27 = getelementptr inbounds nuw i8, ptr %23, i64 %26
  store i8 0, ptr %27, align 1, !tbaa !65
  ret void
}

; Function Attrs: inlinehint nounwind uwtable
define internal i32 @needs_quote(i32 noundef %0) #5 {
  %2 = alloca i32, align 4
  %3 = alloca i32, align 4
  store i32 %0, ptr %3, align 4, !tbaa !19
  %4 = load i32, ptr %3, align 4, !tbaa !19
  %5 = icmp sge i32 %4, 65
  br i1 %5, label %6, label %9

6:                                                ; preds = %1
  %7 = load i32, ptr %3, align 4, !tbaa !19
  %8 = icmp sle i32 %7, 90
  br i1 %8, label %30, label %9

9:                                                ; preds = %6, %1
  %10 = load i32, ptr %3, align 4, !tbaa !19
  %11 = icmp sge i32 %10, 97
  br i1 %11, label %12, label %15

12:                                               ; preds = %9
  %13 = load i32, ptr %3, align 4, !tbaa !19
  %14 = icmp sle i32 %13, 122
  br i1 %14, label %30, label %15

15:                                               ; preds = %12, %9
  %16 = load i32, ptr %3, align 4, !tbaa !19
  %17 = icmp sge i32 %16, 48
  br i1 %17, label %18, label %21

18:                                               ; preds = %15
  %19 = load i32, ptr %3, align 4, !tbaa !19
  %20 = icmp sle i32 %19, 57
  br i1 %20, label %30, label %21

21:                                               ; preds = %18, %15
  %22 = load i32, ptr %3, align 4, !tbaa !19
  %23 = icmp eq i32 %22, 47
  br i1 %23, label %30, label %24

24:                                               ; preds = %21
  %25 = load i32, ptr %3, align 4, !tbaa !19
  %26 = icmp eq i32 %25, 45
  br i1 %26, label %30, label %27

27:                                               ; preds = %24
  %28 = load i32, ptr %3, align 4, !tbaa !19
  %29 = icmp eq i32 %28, 46
  br i1 %29, label %30, label %31

30:                                               ; preds = %27, %24, %21, %18, %12, %6
  store i32 0, ptr %2, align 4
  br label %32

31:                                               ; preds = %27
  store i32 1, ptr %2, align 4
  br label %32

32:                                               ; preds = %31, %30
  %33 = load i32, ptr %2, align 4
  ret i32 %33
}

; Function Attrs: nounwind uwtable
define dso_local i32 @http_get_strbuf(ptr noundef %0, ptr noundef %1, ptr noundef %2) #0 {
  %4 = alloca ptr, align 8
  %5 = alloca ptr, align 8
  %6 = alloca ptr, align 8
  store ptr %0, ptr %4, align 8, !tbaa !4
  store ptr %1, ptr %5, align 8, !tbaa !21
  store ptr %2, ptr %6, align 8, !tbaa !149
  %7 = load ptr, ptr %4, align 8, !tbaa !4
  %8 = load ptr, ptr %5, align 8, !tbaa !21
  %9 = load ptr, ptr %6, align 8, !tbaa !149
  %10 = call i32 @http_request_reauth(ptr noundef %7, ptr noundef %8, i32 noundef 0, ptr noundef %9)
  ret i32 %10
}

; Function Attrs: nounwind uwtable
define internal ptr @quote_ref_url(ptr noundef %0, ptr noundef %1) #0 {
  %3 = alloca ptr, align 8
  %4 = alloca ptr, align 8
  %5 = alloca %struct.strbuf, align 8
  %6 = alloca ptr, align 8
  %7 = alloca i32, align 4
  store ptr %0, ptr %3, align 8, !tbaa !4
  store ptr %1, ptr %4, align 8, !tbaa !4
  call void @llvm.lifetime.start.p0(i64 24, ptr %5) #11
  call void @llvm.memcpy.p0.p0.i64(ptr align 8 %5, ptr align 8 @__const.quote_ref_url.buf, i64 24, i1 false)
  call void @llvm.lifetime.start.p0(i64 8, ptr %6) #11
  call void @llvm.lifetime.start.p0(i64 4, ptr %7) #11
  %8 = load ptr, ptr %3, align 8, !tbaa !4
  call void @end_url_with_slash(ptr noundef %5, ptr noundef %8)
  %9 = load ptr, ptr %4, align 8, !tbaa !4
  store ptr %9, ptr %6, align 8, !tbaa !4
  br label %10

10:                                               ; preds = %26, %2
  %11 = load ptr, ptr %6, align 8, !tbaa !4
  %12 = load i8, ptr %11, align 1, !tbaa !65
  %13 = sext i8 %12 to i32
  store i32 %13, ptr %7, align 4, !tbaa !19
  %14 = icmp ne i32 %13, 0
  br i1 %14, label %15, label %29

15:                                               ; preds = %10
  %16 = load i32, ptr %7, align 4, !tbaa !19
  %17 = call i32 @needs_quote(i32 noundef %16)
  %18 = icmp ne i32 %17, 0
  br i1 %18, label %19, label %21

19:                                               ; preds = %15
  %20 = load i32, ptr %7, align 4, !tbaa !19
  call void (ptr, ptr, ...) @strbuf_addf(ptr noundef %5, ptr noundef @.str.202, i32 noundef %20)
  br label %25

21:                                               ; preds = %15
  %22 = load ptr, ptr %6, align 8, !tbaa !4
  %23 = load i8, ptr %22, align 1, !tbaa !65
  %24 = sext i8 %23 to i32
  call void @strbuf_addch(ptr noundef %5, i32 noundef %24)
  br label %25

25:                                               ; preds = %21, %19
  br label %26

26:                                               ; preds = %25
  %27 = load ptr, ptr %6, align 8, !tbaa !4
  %28 = getelementptr inbounds nuw i8, ptr %27, i32 1
  store ptr %28, ptr %6, align 8, !tbaa !4
  br label %10, !llvm.loop !179

29:                                               ; preds = %10
  %30 = call ptr @strbuf_detach(ptr noundef %5, ptr noundef null)
  call void @llvm.lifetime.end.p0(i64 4, ptr %7) #11
  call void @llvm.lifetime.end.p0(i64 8, ptr %6) #11
  call void @llvm.lifetime.end.p0(i64 24, ptr %5) #11
  ret ptr %30
}

; Function Attrs: nounwind uwtable
define dso_local i32 @http_fetch_ref(ptr noundef %0, ptr noundef %1) #0 {
  %3 = alloca ptr, align 8
  %4 = alloca ptr, align 8
  %5 = alloca %struct.http_get_options, align 8
  %6 = alloca ptr, align 8
  %7 = alloca %struct.strbuf, align 8
  %8 = alloca i32, align 4
  store ptr %0, ptr %3, align 8, !tbaa !4
  store ptr %1, ptr %4, align 8, !tbaa !156
  call void @llvm.lifetime.start.p0(i64 48, ptr %5) #11
  call void @llvm.memset.p0.i64(ptr align 8 %5, i8 0, i64 48, i1 false)
  call void @llvm.lifetime.start.p0(i64 8, ptr %6) #11
  call void @llvm.lifetime.start.p0(i64 24, ptr %7) #11
  call void @llvm.memcpy.p0.p0.i64(ptr align 8 %7, ptr align 8 @__const.http_fetch_ref.buffer, i64 24, i1 false)
  call void @llvm.lifetime.start.p0(i64 4, ptr %8) #11
  store i32 -1, ptr %8, align 4, !tbaa !19
  %9 = load i8, ptr %5, align 8
  %10 = and i8 %9, -2
  %11 = or i8 %10, 1
  store i8 %11, ptr %5, align 8
  %12 = load ptr, ptr %3, align 8, !tbaa !4
  %13 = load ptr, ptr %4, align 8, !tbaa !156
  %14 = getelementptr inbounds nuw %struct.ref, ptr %13, i32 0, i32 13
  %15 = getelementptr inbounds [0 x i8], ptr %14, i64 0, i64 0
  %16 = call ptr @quote_ref_url(ptr noundef %12, ptr noundef %15)
  store ptr %16, ptr %6, align 8, !tbaa !4
  %17 = load ptr, ptr %6, align 8, !tbaa !4
  %18 = call i32 @http_get_strbuf(ptr noundef %17, ptr noundef %7, ptr noundef %5)
  %19 = icmp eq i32 %18, 0
  br i1 %19, label %20, label %49

20:                                               ; preds = %2
  call void @strbuf_rtrim(ptr noundef %7)
  %21 = getelementptr inbounds nuw %struct.strbuf, ptr %7, i32 0, i32 1
  %22 = load i64, ptr %21, align 8, !tbaa !142
  %23 = load ptr, ptr @the_repository, align 8, !tbaa !66
  %24 = getelementptr inbounds nuw %struct.repository, ptr %23, i32 0, i32 17
  %25 = load ptr, ptr %24, align 8, !tbaa !158
  %26 = getelementptr inbounds nuw %struct.git_hash_algo, ptr %25, i32 0, i32 3
  %27 = load i64, ptr %26, align 8, !tbaa !176
  %28 = icmp eq i64 %22, %27
  br i1 %28, label %29, label %35

29:                                               ; preds = %20
  %30 = getelementptr inbounds nuw %struct.strbuf, ptr %7, i32 0, i32 2
  %31 = load ptr, ptr %30, align 8, !tbaa !35
  %32 = load ptr, ptr %4, align 8, !tbaa !156
  %33 = getelementptr inbounds nuw %struct.ref, ptr %32, i32 0, i32 1
  %34 = call i32 @get_oid_hex(ptr noundef %31, ptr noundef %33)
  store i32 %34, ptr %8, align 4, !tbaa !19
  br label %48

35:                                               ; preds = %20
  %36 = getelementptr inbounds nuw %struct.strbuf, ptr %7, i32 0, i32 2
  %37 = load ptr, ptr %36, align 8, !tbaa !35
  %38 = call i32 @starts_with(ptr noundef %37, ptr noundef @.str.42)
  %39 = icmp ne i32 %38, 0
  br i1 %39, label %40, label %47

40:                                               ; preds = %35
  %41 = getelementptr inbounds nuw %struct.strbuf, ptr %7, i32 0, i32 2
  %42 = load ptr, ptr %41, align 8, !tbaa !35
  %43 = getelementptr inbounds i8, ptr %42, i64 5
  %44 = call ptr @xstrdup(ptr noundef %43)
  %45 = load ptr, ptr %4, align 8, !tbaa !156
  %46 = getelementptr inbounds nuw %struct.ref, ptr %45, i32 0, i32 4
  store ptr %44, ptr %46, align 8, !tbaa !4
  store i32 0, ptr %8, align 4, !tbaa !19
  br label %47

47:                                               ; preds = %40, %35
  br label %48

48:                                               ; preds = %47, %29
  br label %49

49:                                               ; preds = %48, %2
  call void @strbuf_release(ptr noundef %7)
  %50 = load ptr, ptr %6, align 8, !tbaa !4
  call void @free(ptr noundef %50) #11
  %51 = load i32, ptr %8, align 4, !tbaa !19
  call void @llvm.lifetime.end.p0(i64 4, ptr %8) #11
  call void @llvm.lifetime.end.p0(i64 24, ptr %7) #11
  call void @llvm.lifetime.end.p0(i64 8, ptr %6) #11
  call void @llvm.lifetime.end.p0(i64 48, ptr %5) #11
  ret i32 %51
}