; Function Attrs: nounwind uwtable
define dso_local i32 @http_fetch_ref(ptr noundef %0, ptr noundef %1) local_unnamed_addr #3 {
  %3 = alloca %struct.strbuf, align 8
  %4 = alloca %struct.http_get_options, align 8
  %5 = alloca %struct.strbuf, align 8
  call void @llvm.lifetime.start.p0(i64 48, ptr nonnull %4) #22
  call void @llvm.memset.p0.i64(ptr noundef nonnull align 8 dereferenceable(48) %4, i8 0, i64 48, i1 false)
  call void @llvm.lifetime.start.p0(i64 24, ptr nonnull %5) #22
  call void @llvm.memcpy.p0.p0.i64(ptr noundef nonnull align 8 dereferenceable(24) %5, ptr noundef nonnull align 8 dereferenceable(24) @__const.fetch_pack_index.buf, i64 24, i1 false)
  store i8 1, ptr %4, align 8
  %6 = getelementptr inbounds nuw i8, ptr %1, i64 176
  call void @llvm.lifetime.start.p0(i64 24, ptr nonnull %3) #22
  call void @llvm.memcpy.p0.p0.i64(ptr noundef nonnull align 8 dereferenceable(24) %3, ptr noundef nonnull align 8 dereferenceable(24) @__const.fetch_pack_index.buf, i64 24, i1 false)
  call void @end_url_with_slash(ptr noundef nonnull %3, ptr noundef %0) #22
  %7 = load i8, ptr %6, align 1, !tbaa !24
  %.not8.i = icmp eq i8 %7, 0
  br i1 %.not8.i, label %quote_ref_url.exit, label %.lr.ph.i

.lr.ph.i:                                         ; preds = %2
  %8 = getelementptr inbounds nuw i8, ptr %3, i64 8
  %9 = getelementptr inbounds nuw i8, ptr %3, i64 16
  br label %10

10:                                               ; preds = %26, %.lr.ph.i
  %11 = phi i8 [ %7, %.lr.ph.i ], [ %28, %26 ]
  %.09.i = phi ptr [ %6, %.lr.ph.i ], [ %27, %26 ]
  %12 = sext i8 %11 to i32
  %13 = and i32 %12, -33
  %14 = add nsw i32 %13, -65
  %or.cond21.i.i = icmp ult i32 %14, 26
  %15 = add nsw i32 %12, -45
  %or.cond11.i.i = icmp ult i32 %15, 13
  %or.cond22.not.i.not.i = select i1 %or.cond21.i.i, i1 true, i1 %or.cond11.i.i
  br i1 %or.cond22.not.i.not.i, label %17, label %16

16:                                               ; preds = %10
  call void (ptr, ptr, ...) @strbuf_addf(ptr noundef nonnull %3, ptr noundef nonnull @.str.202, i32 noundef %12) #22
  br label %26

17:                                               ; preds = %10
  %18 = load i64, ptr %3, align 8, !tbaa !29
  %.not.i.i.i = icmp eq i64 %18, 0
  br i1 %.not.i.i.i, label %strbuf_avail.exit.thread.i.i, label %strbuf_avail.exit.i.i

strbuf_avail.exit.i.i:                            ; preds = %17
  %19 = load i64, ptr %8, align 8, !tbaa !30
  %.neg.i.i = add i64 %19, 1
  %.not.i.i = icmp eq i64 %18, %.neg.i.i
  br i1 %.not.i.i, label %strbuf_avail.exit.thread.i.i, label %strbuf_addch.exit.i

strbuf_avail.exit.thread.i.i:                     ; preds = %strbuf_avail.exit.i.i, %17
  call void @strbuf_grow(ptr noundef nonnull %3, i64 noundef 1) #22
  %.pre.i.i = load i64, ptr %8, align 8, !tbaa !30
  %.pre7.i.i = add i64 %.pre.i.i, 1
  br label %strbuf_addch.exit.i

strbuf_addch.exit.i:                              ; preds = %strbuf_avail.exit.thread.i.i, %strbuf_avail.exit.i.i
  %.pre-phi.i.i = phi i64 [ %.pre7.i.i, %strbuf_avail.exit.thread.i.i ], [ %.neg.i.i, %strbuf_avail.exit.i.i ]
  %20 = phi i64 [ %.pre.i.i, %strbuf_avail.exit.thread.i.i ], [ %19, %strbuf_avail.exit.i.i ]
  %21 = load ptr, ptr %9, align 8, !tbaa !23
  store i64 %.pre-phi.i.i, ptr %8, align 8, !tbaa !30
  %22 = getelementptr inbounds nuw i8, ptr %21, i64 %20
  store i8 %11, ptr %22, align 1, !tbaa !24
  %23 = load ptr, ptr %9, align 8, !tbaa !23
  %24 = load i64, ptr %8, align 8, !tbaa !30
  %25 = getelementptr inbounds nuw i8, ptr %23, i64 %24
  store i8 0, ptr %25, align 1, !tbaa !24
  br label %26

26:                                               ; preds = %strbuf_addch.exit.i, %16
  %27 = getelementptr inbounds nuw i8, ptr %.09.i, i64 1
  %28 = load i8, ptr %27, align 1, !tbaa !24
  %.not.i = icmp eq i8 %28, 0
  br i1 %.not.i, label %quote_ref_url.exit, label %10, !llvm.loop !138

quote_ref_url.exit:                               ; preds = %26, %2
  %29 = call ptr @strbuf_detach(ptr noundef nonnull %3, ptr noundef null) #22
  call void @llvm.lifetime.end.p0(i64 24, ptr nonnull %3) #22
  %30 = call fastcc range(i32 0, 7) i32 @http_request_reauth(ptr noundef %29, ptr noundef nonnull %5, i32 noundef 0, ptr noundef nonnull %4)
  %31 = icmp eq i32 %30, 0
  br i1 %31, label %32, label %53

32:                                               ; preds = %quote_ref_url.exit
  call void @strbuf_rtrim(ptr noundef nonnull %5) #22
  %33 = getelementptr inbounds nuw i8, ptr %5, i64 8
  %34 = load i64, ptr %33, align 8, !tbaa !30
  %35 = load ptr, ptr @the_repository, align 8, !tbaa !39
  %36 = getelementptr inbounds nuw i8, ptr %35, i64 400
  %37 = load ptr, ptr %36, align 8, !tbaa !139
  %38 = getelementptr inbounds nuw i8, ptr %37, i64 24
  %39 = load i64, ptr %38, align 8, !tbaa !157
  %40 = icmp eq i64 %34, %39
  %41 = getelementptr inbounds nuw i8, ptr %5, i64 16
  %42 = load ptr, ptr %41, align 8, !tbaa !23
  br i1 %40, label %43, label %46

43:                                               ; preds = %32
  %44 = getelementptr inbounds nuw i8, ptr %1, i64 8
  %45 = call i32 @get_oid_hex(ptr noundef %42, ptr noundef nonnull %44) #22
  br label %53

46:                                               ; preds = %32
  %47 = call i32 @starts_with(ptr noundef %42, ptr noundef nonnull @.str.42) #22
  %.not = icmp eq i32 %47, 0
  br i1 %.not, label %53, label %48

48:                                               ; preds = %46
  %49 = load ptr, ptr %41, align 8, !tbaa !23
  %50 = getelementptr inbounds nuw i8, ptr %49, i64 5
  %51 = call ptr @xstrdup(ptr noundef nonnull %50) #22
  %52 = getelementptr inbounds nuw i8, ptr %1, i64 120
  store ptr %51, ptr %52, align 8, !tbaa !41
  br label %53

53:                                               ; preds = %43, %48, %46, %quote_ref_url.exit
  %.0 = phi i32 [ %45, %43 ], [ 0, %48 ], [ -1, %46 ], [ -1, %quote_ref_url.exit ]
  call void @strbuf_release(ptr noundef nonnull %5) #22
  call void @free(ptr noundef %29) #22
  call void @llvm.lifetime.end.p0(i64 24, ptr nonnull %5) #22
  call void @llvm.lifetime.end.p0(i64 48, ptr nonnull %4) #22
  ret i32 %.0
}